Certificate:
    Data:
        Version: 1 (0x0)
        Serial Number: 1048578 (0x100002)
    Signature Algorithm: md5WithRSAEncryption
        Issuer: C=US, ST=Massachusetts, O=Xamarin, OU=Engineering, CN=Hamiller-Tube CA/emailAddress=martin.baulig@xamarin.com
        Validity
            Not Before: Nov 22 22:16:22 2014 GMT
            Not After : Nov 19 22:16:22 2024 GMT
        Subject: C=US, ST=Massachusetts, O=Xamarin, OU=Engineering, CN=Monkey
        Subject Public Key Info:
            Public Key Algorithm: rsaEncryption
                Public-Key: (1024 bit)
                Modulus:
                    00:b4:60:e0:ff:ca:38:65:06:b7:6a:11:97:3a:53:
                    06:18:c7:cb:d8:78:47:7c:b4:7f:b0:9d:ad:dd:12:
                    50:ff:3a:2e:21:5b:91:4e:77:79:52:92:68:61:f4:
                    ef:6f:ba:39:0a:bb:fa:04:7e:d8:39:c0:87:fd:8b:
                    ca:56:79:69:78:b9:59:65:0f:9c:a6:88:f1:9b:7b:
                    15:17:97:72:44:8e:1e:ee:62:df:62:00:41:4d:81:
                    91:6e:e0:eb:cc:fb:9f:67:22:35:43:79:df:7f:45:
                    74:10:ae:1b:37:ce:b5:2b:ec:ba:97:fb:2f:a9:94:
                    8f:97:34:c3:e4:df:ce:c6:73
                Exponent: 65537 (0x10001)
    Signature Algorithm: md5WithRSAEncryption
         96:e7:04:f1:a8:9f:2e:93:8f:f4:84:be:74:32:ab:8f:ec:fd:
         eb:25:8b:89:d3:a8:f0:ba:76:11:2c:01:44:b9:f0:61:21:59:
         8c:fb:13:47:31:41:ee:61:df:96:08:47:a8:52:b6:87:ae:c8:
         3a:f3:da:9d:7f:f5:c1:2a:7e:b2:3e:f4:30:39:7a:21:ea:07:
         0a:af:4d:c5:7f:7e:49:70:b8:ec:96:b3:13:64:28:cf:32:06:
         51:39:8f:7b:16:5c:33:65:4c:e0:af:04:72:2d:b7:f8:0c:99:
         8a:f8:61:91:0a:7f:19:a6:bf:95:51:a9:8c:e4:52:8f:43:2f:
         47:e9:06:b2:c0:7d:4b:c5:60:83:30:7b:ea:b4:87:a9:a1:34:
         d1:90:58:c0:57:8e:c1:d5:6a:b5:e4:b2:0b:73:06:9a:5b:26:
         4b:68:7d:da:e1:93:66:ee:cc:10:6c:94:85:05:88:fc:00:a1:
         63:48:e0:13:b5:f9:f0:71:43:21:3b:80:cc:ec:2f:96:d6:a3:
         58:24:e7:73:8b:ca:a2:c9:b2:23:a6:94:1b:9e:1d:b4:28:a2:
         43:ac:83:2b:c0:bd:e0:8c:3a:33:14:67:4d:d5:aa:9d:2f:f6:
         1b:c4:16:a7:35:21:6e:68:8b:7a:b1:66:30:fb:04:60:e8:82:
         9c:7c:f8:55:40:e5:f5:fa:34:c4:17:d7:d0:ab:8f:74:93:df:
         82:36:49:b2:d4:fc:a3:93:04:e7:6c:92:47:fe:0c:65:55:7f:
         b9:5d:2e:d8:69:57:2d:7a:a3:a1:84:43:5e:2e:3c:b6:7e:5e:
         04:fd:41:2f:25:56:be:7c:61:f3:af:39:a8:b6:01:ae:d5:3d:
         dd:56:ca:a9:2c:e7:87:90:48:94:a1:a7:6f:3a:26:56:6d:f0:
         e7:29:fe:49:7d:f7:d5:d3:85:26:15:dc:02:60:e9:4e:c9:64:
         9f:70:66:c1:fb:d8:66:7a:a1:ac:98:74:ad:f8:2c:4d:a2:50:
         74:3c:53:20:3c:1b:34:71:e3:d7:64:56:21:b8:11:12:a9:b1:
         4d:c1:b2:e2:45:5d:fe:92:94:bd:2a:7f:1e:35:c9:f1:5a:d1:
         7f:36:58:0c:93:a1:d0:76:d2:c7:55:36:b3:ef:01:5c:ba:37:
         27:ef:34:b9:b3:c8:62:ae:1f:d3:8c:cb:a4:31:69:38:6a:46:
         70:dd:46:bf:e5:fc:d2:5a:ec:36:7c:49:01:86:24:3e:a7:5d:
         87:46:ae:84:3a:3a:dd:88:1a:a4:3f:68:7b:e4:b3:e3:40:9e:
         82:3f:30:d3:3a:bb:56:fc:b1:43:8f:0e:87:b5:4c:1e:76:ae:
         f4:c5:b3:cf:34:64:b7:ce
-----BEGIN CERTIFICATE-----
MIID4zCCAcsCAxAAAjANBgkqhkiG9w0BAQQFADCBkjELMAkGA1UEBhMCVVMxFjAU
BgNVBAgTDU1hc3NhY2h1c2V0dHMxEDAOBgNVBAoTB1hhbWFyaW4xFDASBgNVBAsT
C0VuZ2luZWVyaW5nMRkwFwYDVQQDExBIYW1pbGxlci1UdWJlIENBMSgwJgYJKoZI
hvcNAQkBFhltYXJ0aW4uYmF1bGlnQHhhbWFyaW4uY29tMB4XDTE0MTEyMjIyMTYy
MloXDTI0MTExOTIyMTYyMlowXjELMAkGA1UEBhMCVVMxFjAUBgNVBAgTDU1hc3Nh
Y2h1c2V0dHMxEDAOBgNVBAoTB1hhbWFyaW4xFDASBgNVBAsTC0VuZ2luZWVyaW5n
MQ8wDQYDVQQDEwZNb25rZXkwgZ8wDQYJKoZIhvcNAQEBBQADgY0AMIGJAoGBALRg
4P/KOGUGt2oRlzpTBhjHy9h4R3y0f7Cdrd0SUP86LiFbkU53eVKSaGH072+6OQq7
+gR+2DnAh/2LylZ5aXi5WWUPnKaI8Zt7FReXckSOHu5i32IAQU2BkW7g68z7n2ci
NUN5339FdBCuGzfOtSvsupf7L6mUj5c0w+TfzsZzAgMBAAEwDQYJKoZIhvcNAQEE
BQADggIBAJbnBPGony6Tj/SEvnQyq4/s/esli4nTqPC6dhEsAUS58GEhWYz7E0cx
Qe5h35YIR6hStoeuyDrz2p1/9cEqfrI+9DA5eiHqBwqvTcV/fklwuOyWsxNkKM8y
BlE5j3sWXDNlTOCvBHItt/gMmYr4YZEKfxmmv5VRqYzkUo9DL0fpBrLAfUvFYIMw
e+q0h6mhNNGQWMBXjsHVarXksgtzBppbJktofdrhk2buzBBslIUFiPwAoWNI4BO1
+fBxQyE7gMzsL5bWo1gk53OLyqLJsiOmlBueHbQookOsgyvAveCMOjMUZ03Vqp0v
9hvEFqc1IW5oi3qxZjD7BGDogpx8+FVA5fX6NMQX19Crj3ST34I2SbLU/KOTBOds
kkf+DGVVf7ldLthpVy16o6GEQ14uPLZ+XgT9QS8lVr58YfOvOai2Aa7VPd1Wyqks
54eQSJShp286JlZt8Ocp/kl999XThSYV3AJg6U7JZJ9wZsH72GZ6oayYdK34LE2i
UHQ8UyA8GzRx49dkViG4ERKpsU3BsuJFXf6SlL0qfx41yfFa0X82WAyTodB20sdV
NrPvAVy6NyfvNLmzyGKuH9OMy6QxaThqRnDdRr/l/NJa7DZ8SQGGJD6nXYdGroQ6
Ot2IGqQ/aHvks+NAnoI/MNM6u1b8sUOPDoe1TB52rvTFs880ZLfO
-----END CERTIFICATE-----
